; Function Attrs: mustprogress uwtable
define hidden void @_ZNK2cv13wechat_qrcode9ImgSource22rotateCounterClockwiseERN5zxing12ErrorHandlerE(ptr dead_on_unwind noalias writable writeonly sret(%"class.zxing::Ref.0") align 8 captures(none) %0, ptr noundef nonnull readonly align 8 captures(none) dereferenceable(80) %1, ptr noundef nonnull align 8 dereferenceable(48) %2) unnamed_addr #0 align 2 personality ptr @__gxx_personality_v0 {
  %4 = getelementptr inbounds nuw i8, ptr %1, i64 12
  %5 = load i32, ptr %4, align 4
  %6 = getelementptr inbounds nuw i8, ptr %1, i64 16
  %7 = load i32, ptr %6, align 8
  %8 = getelementptr inbounds nuw i8, ptr %1, i64 48
  %9 = load ptr, ptr %8, align 8
  %10 = getelementptr inbounds nuw i8, ptr %1, i64 64
  %11 = load i32, ptr %10, align 8
  %12 = getelementptr inbounds nuw i8, ptr %1, i64 68
  %13 = load i32, ptr %12, align 4
  %14 = getelementptr inbounds nuw i8, ptr %1, i64 76
  %15 = load i32, ptr %14, align 4
  %16 = getelementptr inbounds nuw i8, ptr %1, i64 72
  %17 = load i32, ptr %16, align 8
  %18 = tail call noalias noundef nonnull dereferenceable(80) ptr @_Znwm(i64 noundef 80) #14, !noalias !9
  invoke void @_ZN2cv13wechat_qrcode9ImgSourceC2EPhiiiiiiRN5zxing12ErrorHandlerE(ptr noundef nonnull align 8 dereferenceable(80) %18, ptr noundef %9, i32 noundef %11, i32 noundef %13, i32 noundef %15, i32 noundef %17, i32 noundef %7, i32 noundef %5, ptr noundef nonnull align 8 dereferenceable(48) %2)
          to label %21 unwind label %19, !noalias !9

19:                                               ; preds = %3
  %20 = landingpad { ptr, i32 }
          cleanup
  tail call void @_ZdlPv(ptr noundef nonnull %18) #16, !noalias !9
  resume { ptr, i32 } %20

21:                                               ; preds = %3
  %22 = getelementptr inbounds nuw i8, ptr %18, i64 8
  %23 = load i32, ptr %22, align 8, !noalias !9
  %24 = add i32 %23, 1
  store ptr %18, ptr %0, align 8
  store i32 %24, ptr %22, align 8
  %25 = icmp eq i32 %24, 0
  br i1 %25, label %26, label %_ZN5zxing3RefIN2cv13wechat_qrcode9ImgSourceEED2Ev.exit

26:                                               ; preds = %21
  store i32 -559026175, ptr %22, align 8
  %27 = load ptr, ptr %18, align 8
  %28 = getelementptr inbounds nuw i8, ptr %27, i64 8
  %29 = load ptr, ptr %28, align 8
  tail call void %29(ptr noundef nonnull align 8 dereferenceable(12) %18) #15
  br label %_ZN5zxing3RefIN2cv13wechat_qrcode9ImgSourceEED2Ev.exit

_ZN5zxing3RefIN2cv13wechat_qrcode9ImgSourceEED2Ev.exit: ; preds = %21, %26
  ret void
}